; Function Attrs: nounwind uwtable
define ptr @l_Lean_IR_LiveVars_updateJPLiveVarMap(ptr noundef %0, ptr noundef readonly captures(none) %1, ptr noundef %2, ptr noundef %3) local_unnamed_addr #0 {
  %5 = ptrtoint ptr %3 to i64
  %6 = and i64 %5, 1
  %.not = icmp eq i64 %6, 0
  br i1 %.not, label %7, label %lean_inc.exit

7:                                                ; preds = %4
  %.val.i = load i32, ptr %3, align 4, !tbaa !5
  %8 = icmp sgt i32 %.val.i, 0
  br i1 %8, label %9, label %11, !prof !14

9:                                                ; preds = %7
  %10 = add nuw i32 %.val.i, 1
  store i32 %10, ptr %3, align 4, !tbaa !5
  br label %lean_inc.exit

11:                                               ; preds = %7
  %.not.i = icmp eq i32 %.val.i, 0
  br i1 %.not.i, label %lean_inc.exit, label %12

12:                                               ; preds = %11
  tail call void @lean_inc_ref_cold(ptr noundef nonnull %3) #4
  br label %lean_inc.exit

lean_inc.exit:                                    ; preds = %12, %11, %9, %4
  %13 = tail call ptr @l_Lean_IR_LiveVars_collectFnBody(ptr noundef %2, ptr noundef %3, ptr noundef nonnull inttoptr (i64 1 to ptr))
  %14 = getelementptr i8, ptr %1, i64 8
  %.val.i10 = load i64, ptr %14, align 8, !tbaa !12
  %.mask.i = and i64 %.val.i10, 9223372036854775807
  %.not.i11 = icmp eq i64 %.mask.i, 0
  br i1 %.not.i11, label %l___private_Lean_Compiler_IR_LiveVars_0__Lean_IR_LiveVars_bindParams.exit, label %lean_dec.exit.i

lean_dec.exit.i:                                  ; preds = %lean_inc.exit
  %15 = tail call ptr @l_Array_foldlMUnsafe_fold___at___private_Lean_Compiler_IR_LiveVars_0__Lean_IR_LiveVars_bindParams___spec__1(ptr noundef nonnull readonly %1, i64 noundef 0, i64 noundef %.mask.i, ptr noundef %13)
  br label %l___private_Lean_Compiler_IR_LiveVars_0__Lean_IR_LiveVars_bindParams.exit

l___private_Lean_Compiler_IR_LiveVars_0__Lean_IR_LiveVars_bindParams.exit: ; preds = %lean_inc.exit, %lean_dec.exit.i
  %.0.i = phi ptr [ %15, %lean_dec.exit.i ], [ %13, %lean_inc.exit ]
  %16 = tail call zeroext i8 @l_Lean_RBNode_isRed___rarg(ptr noundef %3) #4
  %17 = icmp eq i8 %16, 0
  %18 = tail call ptr @l_Lean_RBNode_ins___at_Lean_IR_LiveVars_collectFnBody___spec__2(ptr noundef %3, ptr noundef %0, ptr noundef %.0.i)
  br i1 %17, label %l_Lean_RBNode_insert___at_Lean_IR_LiveVars_collectFnBody___spec__1.exit, label %19

19:                                               ; preds = %l___private_Lean_Compiler_IR_LiveVars_0__Lean_IR_LiveVars_bindParams.exit
  %20 = tail call ptr @l_Lean_RBNode_setBlack___rarg(ptr noundef %18) #4
  br label %l_Lean_RBNode_insert___at_Lean_IR_LiveVars_collectFnBody___spec__1.exit

l_Lean_RBNode_insert___at_Lean_IR_LiveVars_collectFnBody___spec__1.exit: ; preds = %l___private_Lean_Compiler_IR_LiveVars_0__Lean_IR_LiveVars_bindParams.exit, %19
  %.0.i12 = phi ptr [ %20, %19 ], [ %18, %l___private_Lean_Compiler_IR_LiveVars_0__Lean_IR_LiveVars_bindParams.exit ]
  ret ptr %.0.i12
}